target datalayout = "e-m:e-p270:32:32-p271:32:32-p272:64:64-i64:64-i128:128-f80:128-n8:16:32:64-S128"
target triple = "x86_64-pc-linux-gnu"

%struct.RsaKey = type { %struct.sp_int, %struct.sp_int, %struct.sp_int, %struct.sp_int, %struct.sp_int, %struct.sp_int, %struct.sp_int, %struct.sp_int, ptr, ptr, i32, i32, i32, ptr, i8 }
%struct.sp_int = type { i16, i16, [129 x i64] }

; Function Attrs: nounwind uwtable
define i32 @wc_RsaEncryptSize(ptr noundef %0) #0 {
  %2 = alloca i32, align 4
  %3 = alloca ptr, align 8
  %4 = alloca i32, align 4
  %5 = alloca i32, align 4
  store ptr %0, ptr %3, align 8, !tbaa !11
  call void @llvm.lifetime.start.p0(i64 4, ptr %4) #8
  %6 = load ptr, ptr %3, align 8, !tbaa !11
  %7 = icmp eq ptr %6, null
  br i1 %7, label %8, label %9

8:                                                ; preds = %1
  store i32 -173, ptr %2, align 4
  store i32 1, ptr %5, align 4
  br label %14

9:                                                ; preds = %1
  %10 = load ptr, ptr %3, align 8, !tbaa !11
  %11 = getelementptr inbounds nuw %struct.RsaKey, ptr %10, i32 0, i32 0
  %12 = call i32 @sp_unsigned_bin_size(ptr noundef %11)
  store i32 %12, ptr %4, align 4, !tbaa !7
  %13 = load i32, ptr %4, align 4, !tbaa !7
  store i32 %13, ptr %2, align 4
  store i32 1, ptr %5, align 4
  br label %14

14:                                               ; preds = %9, %8
  call void @llvm.lifetime.end.p0(i64 4, ptr %4) #8
  %15 = load i32, ptr %2, align 4
  ret i32 %15
}

; Function Attrs: nounwind uwtable
define i32 @wc_RsaFlattenPublicKey(ptr noundef %0, ptr noundef %1, ptr noundef %2, ptr noundef %3, ptr noundef %4) #0 {
  %6 = alloca i32, align 4
  %7 = alloca ptr, align 8
  %8 = alloca ptr, align 8
  %9 = alloca ptr, align 8
  %10 = alloca ptr, align 8
  %11 = alloca ptr, align 8
  %12 = alloca i32, align 4
  %13 = alloca i32, align 4
  %14 = alloca i32, align 4
  store ptr %0, ptr %7, align 8, !tbaa !11
  store ptr %1, ptr %8, align 8, !tbaa !27
  store ptr %2, ptr %9, align 8, !tbaa !9
  store ptr %3, ptr %10, align 8, !tbaa !27
  store ptr %4, ptr %11, align 8, !tbaa !9
  call void @llvm.lifetime.start.p0(i64 4, ptr %12) #8
  call void @llvm.lifetime.start.p0(i64 4, ptr %13) #8
  %15 = load ptr, ptr %7, align 8, !tbaa !11
  %16 = icmp eq ptr %15, null
  br i1 %16, label %29, label %17

17:                                               ; preds = %5
  %18 = load ptr, ptr %8, align 8, !tbaa !27
  %19 = icmp eq ptr %18, null
  br i1 %19, label %29, label %20

20:                                               ; preds = %17
  %21 = load ptr, ptr %9, align 8, !tbaa !9
  %22 = icmp eq ptr %21, null
  br i1 %22, label %29, label %23

23:                                               ; preds = %20
  %24 = load ptr, ptr %10, align 8, !tbaa !27
  %25 = icmp eq ptr %24, null
  br i1 %25, label %29, label %26

26:                                               ; preds = %23
  %27 = load ptr, ptr %11, align 8, !tbaa !9
  %28 = icmp eq ptr %27, null
  br i1 %28, label %29, label %30

29:                                               ; preds = %26, %23, %20, %17, %5
  store i32 -173, ptr %6, align 4
  store i32 1, ptr %14, align 4
  br label %70

30:                                               ; preds = %26
  %31 = load ptr, ptr %7, align 8, !tbaa !11
  %32 = getelementptr inbounds nuw %struct.RsaKey, ptr %31, i32 0, i32 1
  %33 = call i32 @sp_unsigned_bin_size(ptr noundef %32)
  store i32 %33, ptr %12, align 4, !tbaa !7
  %34 = load i32, ptr %12, align 4, !tbaa !7
  %35 = load ptr, ptr %9, align 8, !tbaa !9
  %36 = load i32, ptr %35, align 4, !tbaa !7
  %37 = icmp ugt i32 %34, %36
  br i1 %37, label %38, label %39

38:                                               ; preds = %30
  store i32 -131, ptr %6, align 4
  store i32 1, ptr %14, align 4
  br label %70

39:                                               ; preds = %30
  %40 = load ptr, ptr %7, align 8, !tbaa !11
  %41 = getelementptr inbounds nuw %struct.RsaKey, ptr %40, i32 0, i32 1
  %42 = load ptr, ptr %8, align 8, !tbaa !27
  %43 = call i32 @sp_to_unsigned_bin(ptr noundef %41, ptr noundef %42)
  store i32 %43, ptr %13, align 4, !tbaa !7
  %44 = load i32, ptr %13, align 4, !tbaa !7
  %45 = icmp ne i32 %44, 0
  br i1 %45, label %46, label %48

46:                                               ; preds = %39
  %47 = load i32, ptr %13, align 4, !tbaa !7
  store i32 %47, ptr %6, align 4
  store i32 1, ptr %14, align 4
  br label %70

48:                                               ; preds = %39
  %49 = load i32, ptr %12, align 4, !tbaa !7
  %50 = load ptr, ptr %9, align 8, !tbaa !9
  store i32 %49, ptr %50, align 4, !tbaa !7
  %51 = load ptr, ptr %7, align 8, !tbaa !11
  %52 = call i32 @wc_RsaEncryptSize(ptr noundef %51)
  store i32 %52, ptr %12, align 4, !tbaa !7
  %53 = load i32, ptr %12, align 4, !tbaa !7
  %54 = load ptr, ptr %11, align 8, !tbaa !9
  %55 = load i32, ptr %54, align 4, !tbaa !7
  %56 = icmp ugt i32 %53, %55
  br i1 %56, label %57, label %58

57:                                               ; preds = %48
  store i32 -131, ptr %6, align 4
  store i32 1, ptr %14, align 4
  br label %70

58:                                               ; preds = %48
  %59 = load ptr, ptr %7, align 8, !tbaa !11
  %60 = getelementptr inbounds nuw %struct.RsaKey, ptr %59, i32 0, i32 0
  %61 = load ptr, ptr %10, align 8, !tbaa !27
  %62 = call i32 @sp_to_unsigned_bin(ptr noundef %60, ptr noundef %61)
  store i32 %62, ptr %13, align 4, !tbaa !7
  %63 = load i32, ptr %13, align 4, !tbaa !7
  %64 = icmp ne i32 %63, 0
  br i1 %64, label %65, label %67

65:                                               ; preds = %58
  %66 = load i32, ptr %13, align 4, !tbaa !7
  store i32 %66, ptr %6, align 4
  store i32 1, ptr %14, align 4
  br label %70

67:                                               ; preds = %58
  %68 = load i32, ptr %12, align 4, !tbaa !7
  %69 = load ptr, ptr %11, align 8, !tbaa !9
  store i32 %68, ptr %69, align 4, !tbaa !7
  store i32 0, ptr %6, align 4
  store i32 1, ptr %14, align 4
  br label %70

70:                                               ; preds = %67, %65, %57, %46, %38, %29
  call void @llvm.lifetime.end.p0(i64 4, ptr %13) #8
  call void @llvm.lifetime.end.p0(i64 4, ptr %12) #8
  %71 = load i32, ptr %6, align 4
  ret i32 %71
}