; Function Attrs: nounwind uwtable
define i32 @wc_RsaFlattenPublicKey(ptr noundef %0, ptr noundef %1, ptr noundef captures(address_is_null) %2, ptr noundef %3, ptr noundef captures(address_is_null) %4) local_unnamed_addr #0 {
  %6 = icmp eq ptr %0, null
  %7 = icmp eq ptr %1, null
  %or.cond = or i1 %6, %7
  %8 = icmp eq ptr %2, null
  %or.cond3 = or i1 %or.cond, %8
  %9 = icmp eq ptr %3, null
  %or.cond5 = or i1 %or.cond3, %9
  %10 = icmp eq ptr %4, null
  %or.cond7 = or i1 %or.cond5, %10
  br i1 %or.cond7, label %24, label %11

11:                                               ; preds = %5
  %12 = getelementptr inbounds nuw i8, ptr %0, i64 1040
  %13 = tail call i32 @sp_unsigned_bin_size(ptr noundef nonnull %12) #12
  %14 = load i32, ptr %2, align 4, !tbaa !15
  %15 = icmp ugt i32 %13, %14
  br i1 %15, label %24, label %16

16:                                               ; preds = %11
  %17 = tail call i32 @sp_to_unsigned_bin(ptr noundef nonnull %12, ptr noundef nonnull %1) #12
  %.not = icmp eq i32 %17, 0
  br i1 %.not, label %wc_RsaEncryptSize.exit, label %24

wc_RsaEncryptSize.exit:                           ; preds = %16
  store i32 %13, ptr %2, align 4, !tbaa !15
  %18 = tail call i32 @sp_unsigned_bin_size(ptr noundef nonnull %0) #12
  %19 = load i32, ptr %4, align 4, !tbaa !15
  %20 = icmp ugt i32 %18, %19
  br i1 %20, label %24, label %21

21:                                               ; preds = %wc_RsaEncryptSize.exit
  %22 = tail call i32 @sp_to_unsigned_bin(ptr noundef nonnull %0, ptr noundef nonnull %3) #12
  %.not38 = icmp eq i32 %22, 0
  br i1 %.not38, label %23, label %24

23:                                               ; preds = %21
  store i32 %18, ptr %4, align 4, !tbaa !15
  br label %24

24:                                               ; preds = %21, %wc_RsaEncryptSize.exit, %16, %11, %5, %23
  %.0 = phi i32 [ 0, %23 ], [ -173, %5 ], [ -131, %11 ], [ %17, %16 ], [ -131, %wc_RsaEncryptSize.exit ], [ %22, %21 ]
  ret i32 %.0
}